; Function Attrs: nounwind uwtable
define internal fastcc void @nonword(ptr noundef nonnull readonly captures(none) %0, i32 noundef range(i32 97, 115) %1, ptr noundef %2, ptr noundef %3) unnamed_addr #0 {
  %5 = icmp eq i32 %1, 97
  %6 = select i1 %5, i32 36, i32 94
  %7 = getelementptr inbounds nuw i8, ptr %0, i64 152
  %8 = load ptr, ptr %7, align 8
  %9 = load volatile i32, ptr @InterruptPending, align 4
  %.not.i = icmp eq i32 %9, 0
  br i1 %.not.i, label %11, label %10, !prof !13

10:                                               ; preds = %4
  tail call void @ProcessInterrupts() #20
  br label %11

11:                                               ; preds = %10, %4
  %12 = getelementptr inbounds nuw i8, ptr %2, i64 12
  %13 = load i32, ptr %12, align 4
  %14 = getelementptr inbounds nuw i8, ptr %3, i64 8
  %15 = load i32, ptr %14, align 8
  %.not24.i = icmp sgt i32 %13, %15
  br i1 %.not24.i, label %27, label %.preheader.i

.preheader.i:                                     ; preds = %11
  %.0.in30.i = getelementptr inbounds nuw i8, ptr %2, i64 24
  %.031.i = load ptr, ptr %.0.in30.i, align 8
  %.not2632.i = icmp eq ptr %.031.i, null
  br i1 %.not2632.i, label %.loopexit.i, label %.lr.ph.i

.lr.ph.i:                                         ; preds = %.preheader.i, %26
  %.033.i = phi ptr [ %.0.i, %26 ], [ %.031.i, %.preheader.i ]
  %16 = getelementptr inbounds nuw i8, ptr %.033.i, i64 16
  %17 = load ptr, ptr %16, align 8
  %18 = icmp eq ptr %17, %3
  br i1 %18, label %19, label %26

19:                                               ; preds = %.lr.ph.i
  %20 = getelementptr inbounds nuw i8, ptr %.033.i, i64 4
  %21 = load i16, ptr %20, align 4
  %22 = icmp eq i16 %21, 1
  br i1 %22, label %23, label %26

23:                                               ; preds = %19
  %24 = load i32, ptr %.033.i, align 8
  %25 = icmp eq i32 %24, %6
  br i1 %25, label %newarc.exit, label %26

26:                                               ; preds = %23, %19, %.lr.ph.i
  %.0.in.i = getelementptr inbounds nuw i8, ptr %.033.i, i64 24
  %.0.i = load ptr, ptr %.0.in.i, align 8
  %.not26.i = icmp eq ptr %.0.i, null
  br i1 %.not26.i, label %.loopexit.i, label %.lr.ph.i, !llvm.loop !14

27:                                               ; preds = %11
  %28 = getelementptr inbounds nuw i8, ptr %3, i64 16
  %.134.i = load ptr, ptr %28, align 8
  %.not2535.i = icmp eq ptr %.134.i, null
  br i1 %.not2535.i, label %.loopexit.i, label %.lr.ph37.i

.lr.ph37.i:                                       ; preds = %27, %39
  %.136.i = phi ptr [ %.1.i, %39 ], [ %.134.i, %27 ]
  %29 = getelementptr inbounds nuw i8, ptr %.136.i, i64 8
  %30 = load ptr, ptr %29, align 8
  %31 = icmp eq ptr %30, %2
  br i1 %31, label %32, label %39

32:                                               ; preds = %.lr.ph37.i
  %33 = getelementptr inbounds nuw i8, ptr %.136.i, i64 4
  %34 = load i16, ptr %33, align 4
  %35 = icmp eq i16 %34, 1
  br i1 %35, label %36, label %39

36:                                               ; preds = %32
  %37 = load i32, ptr %.136.i, align 8
  %38 = icmp eq i32 %37, %6
  br i1 %38, label %newarc.exit, label %39

39:                                               ; preds = %36, %32, %.lr.ph37.i
  %40 = getelementptr inbounds nuw i8, ptr %.136.i, i64 40
  %.1.i = load ptr, ptr %40, align 8
  %.not25.i = icmp eq ptr %.1.i, null
  br i1 %.not25.i, label %.loopexit.i, label %.lr.ph37.i, !llvm.loop !15

.loopexit.i:                                      ; preds = %26, %39, %27, %.preheader.i
  tail call fastcc void @createarc(ptr noundef %8, i32 noundef %6, i16 noundef signext 1, ptr noundef %2, ptr noundef %3)
  br label %newarc.exit

newarc.exit:                                      ; preds = %23, %36, %.loopexit.i
  %41 = load ptr, ptr %7, align 8
  %42 = load volatile i32, ptr @InterruptPending, align 4
  %.not.i14 = icmp eq i32 %42, 0
  br i1 %.not.i14, label %44, label %43, !prof !13

43:                                               ; preds = %newarc.exit
  tail call void @ProcessInterrupts() #20
  br label %44

44:                                               ; preds = %43, %newarc.exit
  %45 = load i32, ptr %12, align 4
  %46 = load i32, ptr %14, align 8
  %.not24.i15 = icmp sgt i32 %45, %46
  br i1 %.not24.i15, label %58, label %.preheader.i16

.preheader.i16:                                   ; preds = %44
  %.0.in30.i17 = getelementptr inbounds nuw i8, ptr %2, i64 24
  %.031.i18 = load ptr, ptr %.0.in30.i17, align 8
  %.not2632.i19 = icmp eq ptr %.031.i18, null
  br i1 %.not2632.i19, label %.loopexit.i25, label %.lr.ph.i20

.lr.ph.i20:                                       ; preds = %.preheader.i16, %57
  %.033.i21 = phi ptr [ %.0.i23, %57 ], [ %.031.i18, %.preheader.i16 ]
  %47 = getelementptr inbounds nuw i8, ptr %.033.i21, i64 16
  %48 = load ptr, ptr %47, align 8
  %49 = icmp eq ptr %48, %3
  br i1 %49, label %50, label %57

50:                                               ; preds = %.lr.ph.i20
  %51 = getelementptr inbounds nuw i8, ptr %.033.i21, i64 4
  %52 = load i16, ptr %51, align 4
  %53 = icmp eq i16 %52, 0
  br i1 %53, label %54, label %57

54:                                               ; preds = %50
  %55 = load i32, ptr %.033.i21, align 8
  %56 = icmp eq i32 %55, %6
  br i1 %56, label %newarc.exit32, label %57

57:                                               ; preds = %54, %50, %.lr.ph.i20
  %.0.in.i22 = getelementptr inbounds nuw i8, ptr %.033.i21, i64 24
  %.0.i23 = load ptr, ptr %.0.in.i22, align 8
  %.not26.i24 = icmp eq ptr %.0.i23, null
  br i1 %.not26.i24, label %.loopexit.i25, label %.lr.ph.i20, !llvm.loop !14

58:                                               ; preds = %44
  %59 = getelementptr inbounds nuw i8, ptr %3, i64 16
  %.134.i26 = load ptr, ptr %59, align 8
  %.not2535.i27 = icmp eq ptr %.134.i26, null
  br i1 %.not2535.i27, label %.loopexit.i25, label %.lr.ph37.i28

.lr.ph37.i28:                                     ; preds = %58, %70
  %.136.i29 = phi ptr [ %.1.i30, %70 ], [ %.134.i26, %58 ]
  %60 = getelementptr inbounds nuw i8, ptr %.136.i29, i64 8
  %61 = load ptr, ptr %60, align 8
  %62 = icmp eq ptr %61, %2
  br i1 %62, label %63, label %70

63:                                               ; preds = %.lr.ph37.i28
  %64 = getelementptr inbounds nuw i8, ptr %.136.i29, i64 4
  %65 = load i16, ptr %64, align 4
  %66 = icmp eq i16 %65, 0
  br i1 %66, label %67, label %70

67:                                               ; preds = %63
  %68 = load i32, ptr %.136.i29, align 8
  %69 = icmp eq i32 %68, %6
  br i1 %69, label %newarc.exit32, label %70

70:                                               ; preds = %67, %63, %.lr.ph37.i28
  %71 = getelementptr inbounds nuw i8, ptr %.136.i29, i64 40
  %.1.i30 = load ptr, ptr %71, align 8
  %.not25.i31 = icmp eq ptr %.1.i30, null
  br i1 %.not25.i31, label %.loopexit.i25, label %.lr.ph37.i28, !llvm.loop !15

.loopexit.i25:                                    ; preds = %57, %70, %58, %.preheader.i16
  tail call fastcc void @createarc(ptr noundef %41, i32 noundef %6, i16 noundef signext 0, ptr noundef %2, ptr noundef %3)
  br label %newarc.exit32

newarc.exit32:                                    ; preds = %54, %67, %.loopexit.i25
  %72 = load ptr, ptr %7, align 8
  %73 = getelementptr inbounds nuw i8, ptr %0, i64 160
  %74 = load ptr, ptr %73, align 8
  %75 = getelementptr inbounds nuw i8, ptr %0, i64 176
  %76 = load ptr, ptr %75, align 8
  tail call fastcc void @colorcomplement(ptr noundef %72, ptr noundef %74, i32 noundef %1, ptr noundef %76, ptr noundef %2, ptr noundef %3)
  ret void
}